(dp1
S'files'
p2
(dp3
S'raspy_servers_logger'
p4
(dp5
S'index'
p6
(dp7
S'html_filename'
p8
S'raspy_servers_logger.html'
p9
sS'name'
p10
S'raspy.servers.logger'
p11
sS'nums'
p12
ccopy_reg
_reconstructor
p13
(ccoverage.results
Numbers
p14
c__builtin__
object
p15
NtRp16
(dp17
S'n_files'
p18
I1
sS'n_branches'
p19
I0
sS'n_statements'
p20
I122
sS'n_excluded'
p21
I3
sS'n_partial_branches'
p22
I0
sS'n_missing'
p23
I30
sS'n_missing_branches'
p24
I0
sbssS'hash'
p25
S'\xe8\x94?L\x02t\x9e)\xc3\xc6<\xb3\xf5"52'
p26
ssS'raspyweb'
p27
(dp28
g6
(dp29
g8
S'raspyweb.html'
p30
sg10
g27
sg12
g13
(g14
g15
NtRp31
(dp32
g18
I1
sg19
I0
sg20
I6
sg21
I2
sg22
I0
sg23
I0
sg24
I0
sbssg25
S'(\xd8_#e\x13xM\xf2s_\xa6"\x98f!'
p33
ssS'raspy_servers_broker'
p34
(dp35
g6
(dp36
g8
S'raspy_servers_broker.html'
p37
sg10
S'raspy.servers.broker'
p38
sg12
g13
(g14
g15
NtRp39
(dp40
g18
I1
sg19
I0
sg20
I278
sg21
I7
sg22
I0
sg23
I24
sg24
I0
sbssg25
S'\x83]\xa5\xde\x1c\x01(\xd4@}7I\xc0\x06\xaa\x84'
p41
ssS'raspy_servers'
p42
(dp43
g6
(dp44
g8
S'raspy_servers.html'
p45
sg10
S'raspy.servers'
p46
sg12
g13
(g14
g15
NtRp47
(dp48
g18
I1
sg19
I0
sg20
I6
sg21
I2
sg22
I0
sg23
I0
sg24
I0
sbssg25
S'(\xd8_#e\x13xM\xf2s_\xa6"\x98f!'
p49
ssS'raspy_servers_sync'
p50
(dp51
g6
(dp52
g8
S'raspy_servers_sync.html'
p53
sg10
S'raspy.servers.sync'
p54
sg12
g13
(g14
g15
NtRp55
(dp56
g18
I1
sg19
I0
sg20
I37
sg21
I3
sg22
I0
sg23
I5
sg24
I0
sbssg25
S'\x97\x91\xd5\xdf\x84\xe9\xec\xb7\x96\x04\n*1\xc6\xe6v'
p57
ssS'raspy_common_zhelpers'
p58
(dp59
g6
(dp60
g8
S'raspy_common_zhelpers.html'
p61
sg10
S'raspy.common.zhelpers'
p62
sg12
g13
(g14
g15
NtRp63
(dp64
g18
I1
sg19
I0
sg20
I18
sg21
I0
sg22
I0
sg23
I2
sg24
I0
sbssg25
S"\xa0($\xa1V:aV\xf6'\x9c\x7f,\xe2w]"
p65
ssS'raspy_common_mdcliapi'
p66
(dp67
g6
(dp68
g8
S'raspy_common_mdcliapi.html'
p69
sg10
S'raspy.common.mdcliapi'
p70
sg12
g13
(g14
g15
NtRp71
(dp72
g18
I1
sg19
I0
sg20
I138
sg21
I2
sg22
I0
sg23
I24
sg24
I0
sbssg25
S'\xf9g\x16\x01\xd3\x18\x8b*+(\xe3\x10\xc2\x022\xaf'
p73
ssS'raspyweb_config'
p74
(dp75
g6
(dp76
g8
S'raspyweb_config.html'
p77
sg10
S'raspyweb.config'
p78
sg12
g13
(g14
g15
NtRp79
(dp80
g18
I1
sg19
I0
sg20
I28
sg21
I0
sg22
I0
sg23
I0
sg24
I0
sbssg25
S'\xf9\xe7\x00\xcd\x15\x9e\x16\n\xc19\x1a\x10\x83\\\xc93'
p81
ssS'raspy_servers_fake'
p82
(dp83
g6
(dp84
g8
S'raspy_servers_fake.html'
p85
sg10
S'raspy.servers.fake'
p86
sg12
g13
(g14
g15
NtRp87
(dp88
g18
I1
sg19
I0
sg20
I43
sg21
I3
sg22
I0
sg23
I6
sg24
I0
sbssg25
S'\xac9s\xb5\xf8.\xb3\xb1\xb8\xbf\xc1r$\xbc\x12\xa2'
p89
ssS'raspy_common_devices_sensor'
p90
(dp91
g6
(dp92
g8
S'raspy_common_devices_sensor.html'
p93
sg10
S'raspy.common.devices.sensor'
p94
sg12
g13
(g14
g15
NtRp95
(dp96
g18
I1
sg19
I0
sg20
I34
sg21
I0
sg22
I0
sg23
I1
sg24
I0
sbssg25
S"\x1e\x06\x93\xa0\xb7\xd4\xab\xa8\x83\xf9'\xf9$`\xf8\x1c"
p97
ssS'raspy_common_MDP'
p98
(dp99
g6
(dp100
g8
S'raspy_common_MDP.html'
p101
sg10
S'raspy.common.MDP'
p102
sg12
g13
(g14
g15
NtRp103
(dp104
g18
I1
sg19
I0
sg20
I31
sg21
I0
sg22
I0
sg23
I5
sg24
I0
sbssg25
S'+\xd5:u\xfb\x00\xdb\xc6q\t\x18\x04\xb9X\x80\x07'
p105
ssS'raspy_common_executive'
p106
(dp107
g6
(dp108
g8
S'raspy_common_executive.html'
p109
sg10
S'raspy.common.executive'
p110
sg12
g13
(g14
g15
NtRp111
(dp112
g18
I1
sg19
I0
sg20
I48
sg21
I0
sg22
I0
sg23
I7
sg24
I0
sbssg25
S'0L\x00?\xbf\xbf8\x1e\xe2:\xb0Jf4\xa2\xca'
p113
ssS'raspy_servers_onewire'
p114
(dp115
g6
(dp116
g8
S'raspy_servers_onewire.html'
p117
sg10
S'raspy.servers.onewire'
p118
sg12
g13
(g14
g15
NtRp119
(dp120
g18
I1
sg19
I0
sg20
I50
sg21
I3
sg22
I0
sg23
I9
sg24
I0
sbssg25
S'\x1au\xa7X\x95\x1b\xea9\xe1\x8e\xaf\xa4\xab\x0bfT'
p121
ssS'raspyweb_app_views'
p122
(dp123
g6
(dp124
g8
S'raspyweb_app_views.html'
p125
sg10
S'raspyweb.app.views'
p126
sg12
g13
(g14
g15
NtRp127
(dp128
g18
I1
sg19
I0
sg20
I13
sg21
I0
sg22
I0
sg23
I0
sg24
I0
sbssg25
S'\xd0uf\x82l\x8dY\xa5nF;W\xff\xcd\xac\xa9'
p129
ssS'raspy_common_devices_device'
p130
(dp131
g6
(dp132
g8
S'raspy_common_devices_device.html'
p133
sg10
S'raspy.common.devices.device'
p134
sg12
g13
(g14
g15
NtRp135
(dp136
g18
I1
sg19
I0
sg20
I143
sg21
I0
sg22
I0
sg23
I31
sg24
I0
sbssg25
S'\xb3gR\x7f\xae\x86\x0f\xb6\xafRF\xa6\x1eI\xbf\xbc'
p137
ssS'raspyweb_app_ajax'
p138
(dp139
g6
(dp140
g8
S'raspyweb_app_ajax.html'
p141
sg10
S'raspyweb.app.ajax'
p142
sg12
g13
(g14
g15
NtRp143
(dp144
g18
I1
sg19
I0
sg20
I6
sg21
I2
sg22
I0
sg23
I0
sg24
I0
sbssg25
S'\xdb\n\xe7\xa8j(2]E!\x9f\x032\x99\xaa\x98'
p145
ssS'raspyweb_app'
p146
(dp147
g6
(dp148
g8
S'raspyweb_app.html'
p149
sg10
S'raspyweb.app'
p150
sg12
g13
(g14
g15
NtRp151
(dp152
g18
I1
sg19
I0
sg20
I27
sg21
I0
sg22
I0
sg23
I11
sg24
I0
sbssg25
S'\xf4\xe1a\xd7\xa7\xd3\x93F\xab\x86\x8ae\xd0\x82_\xc0'
p153
ssS'raspy_common_kvcliapi'
p154
(dp155
g6
(dp156
g8
S'raspy_common_kvcliapi.html'
p157
sg10
S'raspy.common.kvcliapi'
p158
sg12
g13
(g14
g15
NtRp159
(dp160
g18
I1
sg19
I0
sg20
I79
sg21
I0
sg22
I0
sg23
I6
sg24
I0
sbssg25
S'd\xf0\x9a_\xc5\xca\x0f\xfb\\\x92\xca&,\xdc\x05\xb4'
p161
ssS'raspy_common_devices_media'
p162
(dp163
g6
(dp164
g8
S'raspy_common_devices_media.html'
p165
sg10
S'raspy.common.devices.media'
p166
sg12
g13
(g14
g15
NtRp167
(dp168
g18
I1
sg19
I0
sg20
I34
sg21
I0
sg22
I0
sg23
I1
sg24
I0
sbssg25
S'\xbe\xd9lne\xa4\x8bJ\xa5\xc1P\xa6\x84\x8f\xf7\xa2'
p169
ssS'raspy_servers_titanic'
p170
(dp171
g6
(dp172
g8
S'raspy_servers_titanic.html'
p173
sg10
S'raspy.servers.titanic'
p174
sg12
g13
(g14
g15
NtRp175
(dp176
g18
I1
sg19
I0
sg20
I246
sg21
I6
sg22
I0
sg23
I22
sg24
I0
sbssg25
S'O\xa2\xc4\x91Z58\xb3G\xeaw?\x0c\x0b\xc8\x98'
p177
ssS'raspy_common_statistics'
p178
(dp179
g6
(dp180
g8
S'raspy_common_statistics.html'
p181
sg10
S'raspy.common.statistics'
p182
sg12
g13
(g14
g15
NtRp183
(dp184
g18
I1
sg19
I0
sg20
I70
sg21
I0
sg22
I0
sg23
I20
sg24
I0
sbssg25
S'F\x8a\x8ar\xa59\xf2\xad\x89\x80\x9b\x0c\xd6\\K\xe4'
p185
ssS'raspyweb_app_ajax_views'
p186
(dp187
g6
(dp188
g8
S'raspyweb_app_ajax_views.html'
p189
sg10
S'raspyweb.app.ajax.views'
p190
sg12
g13
(g14
g15
NtRp191
(dp192
g18
I1
sg19
I0
sg20
I24
sg21
I0
sg22
I0
sg23
I5
sg24
I0
sbssg25
S'Uw\n\xfaLE\x93\xe5\x82\xffThR\xacY\t'
p193
ssS'raspy_common'
p194
(dp195
g6
(dp196
g8
S'raspy_common.html'
p197
sg10
S'raspy.common'
p198
sg12
g13
(g14
g15
NtRp199
(dp200
g18
I1
sg19
I0
sg20
I6
sg21
I2
sg22
I0
sg23
I0
sg24
I0
sbssg25
S'(\xd8_#e\x13xM\xf2s_\xa6"\x98f!'
p201
ssS'raspy_servers_core'
p202
(dp203
g6
(dp204
g8
S'raspy_servers_core.html'
p205
sg10
S'raspy.servers.core'
p206
sg12
g13
(g14
g15
NtRp207
(dp208
g18
I1
sg19
I0
sg20
I135
sg21
I3
sg22
I0
sg23
I32
sg24
I0
sbssg25
S'\x10\x9f\r\x1e\xf8|\xe5\ne\x11Nn\xc4\xa4\x90A'
p209
ssS'raspy'
p210
(dp211
g6
(dp212
g8
S'raspy.html'
p213
sg10
g210
sg12
g13
(g14
g15
NtRp214
(dp215
g18
I1
sg19
I0
sg20
I6
sg21
I2
sg22
I0
sg23
I0
sg24
I0
sbssg25
S'(\xd8_#e\x13xM\xf2s_\xa6"\x98f!'
p216
ssS'raspy_common_server'
p217
(dp218
g6
(dp219
g8
S'raspy_common_server.html'
p220
sg10
S'raspy.common.server'
p221
sg12
g13
(g14
g15
NtRp222
(dp223
g18
I1
sg19
I0
sg20
I46
sg21
I3
sg22
I0
sg23
I3
sg24
I0
sbssg25
S'{\x0b\x8e<&\xa2\x97\x12rL\xed\x15\x82\x0f\xda\xa2'
p224
ssS'raspy_common_devices'
p225
(dp226
g6
(dp227
g8
S'raspy_common_devices.html'
p228
sg10
S'raspy.common.devices'
p229
sg12
g13
(g14
g15
NtRp230
(dp231
g18
I1
sg19
I0
sg20
I10
sg21
I0
sg22
I0
sg23
I0
sg24
I0
sbssg25
S'\xf4\xfc0\xe2\x95\xf2wrr\x1c\xdep0\xc4\x86\\'
p232
ssS'raspy_common_kvsimple'
p233
(dp234
g6
(dp235
g8
S'raspy_common_kvsimple.html'
p236
sg10
S'raspy.common.kvsimple'
p237
sg12
g13
(g14
g15
NtRp238
(dp239
g18
I1
sg19
I0
sg20
I34
sg21
I0
sg22
I0
sg23
I2
sg24
I0
sbssg25
S'H\x07\xe8>%t\x95\x17\x11\xe5y\xa8\x1f\xd7\x8c\xf2'
p240
ssS'raspy_common_mdwrkapi'
p241
(dp242
g6
(dp243
g8
S'raspy_common_mdwrkapi.html'
p244
sg10
S'raspy.common.mdwrkapi'
p245
sg12
g13
(g14
g15
NtRp246
(dp247
g18
I1
sg19
I0
sg20
I96
sg21
I2
sg22
I0
sg23
I5
sg24
I0
sbssg25
S'Q\x8f\xa44f\n?\xfc\xa7O\xee\n\x07\x05W\xe7'
p248
sssS'version'
p249
S'3.7.1'
p250
sS'settings'
p251
S'I` MG\xe4Z\xa4\xd7k\xfa\xc9\x84\xfaj\x07'
p252
sS'format'
p253
I1
s.