(dp1
S'files'
p2
(dp3
S'raspyweb'
p4
(dp5
S'index'
p6
(dp7
S'html_filename'
p8
S'raspyweb.html'
p9
sS'name'
p10
g4
sS'nums'
p11
ccopy_reg
_reconstructor
p12
(ccoverage.results
Numbers
p13
c__builtin__
object
p14
NtRp15
(dp16
S'n_files'
p17
I1
sS'n_branches'
p18
I0
sS'n_statements'
p19
I6
sS'n_excluded'
p20
I2
sS'n_partial_branches'
p21
I0
sS'n_missing'
p22
I0
sS'n_missing_branches'
p23
I0
sbssS'hash'
p24
S'(\xd8_#e\x13xM\xf2s_\xa6"\x98f!'
p25
ssS'raspy_servers_broker'
p26
(dp27
g6
(dp28
g8
S'raspy_servers_broker.html'
p29
sg10
S'raspy.servers.broker'
p30
sg11
g12
(g13
g14
NtRp31
(dp32
g17
I1
sg18
I0
sg19
I278
sg20
I7
sg21
I0
sg22
I13
sg23
I0
sbssg24
S'\x98I\xfa\xe4\xbc\x0fA\x0c;>\x95\x99\xbf\n\xaeC'
p33
ssS'raspy_servers'
p34
(dp35
g6
(dp36
g8
S'raspy_servers.html'
p37
sg10
S'raspy.servers'
p38
sg11
g12
(g13
g14
NtRp39
(dp40
g17
I1
sg18
I0
sg19
I6
sg20
I2
sg21
I0
sg22
I0
sg23
I0
sbssg24
S'(\xd8_#e\x13xM\xf2s_\xa6"\x98f!'
p41
ssS'raspy_common_zhelpers'
p42
(dp43
g6
(dp44
g8
S'raspy_common_zhelpers.html'
p45
sg10
S'raspy.common.zhelpers'
p46
sg11
g12
(g13
g14
NtRp47
(dp48
g17
I1
sg18
I0
sg19
I30
sg20
I0
sg21
I0
sg22
I13
sg23
I0
sbssg24
S'\xd1qBo)!\x91\xe6\xd8\xa5z\xa7\x8c\x89kb'
p49
ssS'raspy_common_mdcliapi'
p50
(dp51
g6
(dp52
g8
S'raspy_common_mdcliapi.html'
p53
sg10
S'raspy.common.mdcliapi'
p54
sg11
g12
(g13
g14
NtRp55
(dp56
g17
I1
sg18
I0
sg19
I56
sg20
I2
sg21
I0
sg22
I8
sg23
I0
sbssg24
S'\xac\xe6\xb0h\x81\x11\xfa(=\xddI\xc0\xda\x1d\x9d\xca'
p57
ssS'raspyweb_config'
p58
(dp59
g6
(dp60
g8
S'raspyweb_config.html'
p61
sg10
S'raspyweb.config'
p62
sg11
g12
(g13
g14
NtRp63
(dp64
g17
I1
sg18
I0
sg19
I25
sg20
I0
sg21
I0
sg22
I0
sg23
I0
sbssg24
S'b:K\xf9y\xde\xbb\xd4_\xe6\xd5\xc6\x02\x91/S'
p65
ssS'raspy_servers_fake'
p66
(dp67
g6
(dp68
g8
S'raspy_servers_fake.html'
p69
sg10
S'raspy.servers.fake'
p70
sg11
g12
(g13
g14
NtRp71
(dp72
g17
I1
sg18
I0
sg19
I44
sg20
I3
sg21
I0
sg22
I6
sg23
I0
sbssg24
S'\x08<\xb0\xe8}\xc0\xb4\xb9\x1c\x83\x03"\xcc\x8fJ\xb0'
p73
ssS'raspy_common_devices_sensor'
p74
(dp75
g6
(dp76
g8
S'raspy_common_devices_sensor.html'
p77
sg10
S'raspy.common.devices.sensor'
p78
sg11
g12
(g13
g14
NtRp79
(dp80
g17
I1
sg18
I0
sg19
I34
sg20
I0
sg21
I0
sg22
I1
sg23
I0
sbssg24
S"\x1e\x06\x93\xa0\xb7\xd4\xab\xa8\x83\xf9'\xf9$`\xf8\x1c"
p81
ssS'raspy_common_MDP'
p82
(dp83
g6
(dp84
g8
S'raspy_common_MDP.html'
p85
sg10
S'raspy.common.MDP'
p86
sg11
g12
(g13
g14
NtRp87
(dp88
g17
I1
sg18
I0
sg19
I31
sg20
I0
sg21
I0
sg22
I5
sg23
I0
sbssg24
S'+\xd5:u\xfb\x00\xdb\xc6q\t\x18\x04\xb9X\x80\x07'
p89
ssS'raspy_common_executive'
p90
(dp91
g6
(dp92
g8
S'raspy_common_executive.html'
p93
sg10
S'raspy.common.executive'
p94
sg11
g12
(g13
g14
NtRp95
(dp96
g17
I1
sg18
I0
sg19
I48
sg20
I0
sg21
I0
sg22
I7
sg23
I0
sbssg24
S'0L\x00?\xbf\xbf8\x1e\xe2:\xb0Jf4\xa2\xca'
p97
ssS'raspy_servers_onewire'
p98
(dp99
g6
(dp100
g8
S'raspy_servers_onewire.html'
p101
sg10
S'raspy.servers.onewire'
p102
sg11
g12
(g13
g14
NtRp103
(dp104
g17
I1
sg18
I0
sg19
I46
sg20
I3
sg21
I0
sg22
I5
sg23
I0
sbssg24
S'c\xb2\xee\xa9C\r+\xe4\x85\xc7\x0c\xda\xb8\x0b\xf2\x87'
p105
ssS'raspy_common_devices_device'
p106
(dp107
g6
(dp108
g8
S'raspy_common_devices_device.html'
p109
sg10
S'raspy.common.devices.device'
p110
sg11
g12
(g13
g14
NtRp111
(dp112
g17
I1
sg18
I0
sg19
I59
sg20
I0
sg21
I0
sg22
I6
sg23
I0
sbssg24
S't5\xe3Ia\x17\x9d\t\xa9\x1c3\x08\x86\xea`\x15'
p113
ssS'raspyweb_app'
p114
(dp115
g6
(dp116
g8
S'raspyweb_app.html'
p117
sg10
S'raspyweb.app'
p118
sg11
g12
(g13
g14
NtRp119
(dp120
g17
I1
sg18
I0
sg19
I26
sg20
I0
sg21
I0
sg22
I11
sg23
I0
sbssg24
S'\xb5\xcdD\xae\xbc3\xae[\xa6\xc6m\x10\x0f$sO'
p121
ssS'raspy_common_kvcliapi'
p122
(dp123
g6
(dp124
g8
S'raspy_common_kvcliapi.html'
p125
sg10
S'raspy.common.kvcliapi'
p126
sg11
g12
(g13
g14
NtRp127
(dp128
g17
I1
sg18
I0
sg19
I79
sg20
I0
sg21
I0
sg22
I4
sg23
I0
sbssg24
S'\xbf\xef\xa2GQ\xe0\xe6\x89\xf7$5\x1e\x8dl\xbf}'
p129
ssS'raspy_common_devices_media'
p130
(dp131
g6
(dp132
g8
S'raspy_common_devices_media.html'
p133
sg10
S'raspy.common.devices.media'
p134
sg11
g12
(g13
g14
NtRp135
(dp136
g17
I1
sg18
I0
sg19
I34
sg20
I0
sg21
I0
sg22
I1
sg23
I0
sbssg24
S'\xbe\xd9lne\xa4\x8bJ\xa5\xc1P\xa6\x84\x8f\xf7\xa2'
p137
ssS'raspy_servers_titanic'
p138
(dp139
g6
(dp140
g8
S'raspy_servers_titanic.html'
p141
sg10
S'raspy.servers.titanic'
p142
sg11
g12
(g13
g14
NtRp143
(dp144
g17
I1
sg18
I0
sg19
I248
sg20
I3
sg21
I0
sg22
I58
sg23
I0
sbssg24
S"'? \xe5\xa8\xe2W\x0fl\xac]\xf9\x91{\xb66"
p145
ssS'raspy_common_statistics'
p146
(dp147
g6
(dp148
g8
S'raspy_common_statistics.html'
p149
sg10
S'raspy.common.statistics'
p150
sg11
g12
(g13
g14
NtRp151
(dp152
g17
I1
sg18
I0
sg19
I70
sg20
I0
sg21
I0
sg22
I20
sg23
I0
sbssg24
S'F\x8a\x8ar\xa59\xf2\xad\x89\x80\x9b\x0c\xd6\\K\xe4'
p153
ssS'raspy_common'
p154
(dp155
g6
(dp156
g8
S'raspy_common.html'
p157
sg10
S'raspy.common'
p158
sg11
g12
(g13
g14
NtRp159
(dp160
g17
I1
sg18
I0
sg19
I6
sg20
I2
sg21
I0
sg22
I0
sg23
I0
sbssg24
S'(\xd8_#e\x13xM\xf2s_\xa6"\x98f!'
p161
ssS'raspy_servers_core'
p162
(dp163
g6
(dp164
g8
S'raspy_servers_core.html'
p165
sg10
S'raspy.servers.core'
p166
sg11
g12
(g13
g14
NtRp167
(dp168
g17
I1
sg18
I0
sg19
I131
sg20
I3
sg21
I0
sg22
I33
sg23
I0
sbssg24
S',ZZO\x94f\xe4\xe9\xee\xbc\xa8\x0f\xa3\x9b\xf3l'
p169
ssS'raspy'
p170
(dp171
g6
(dp172
g8
S'raspy.html'
p173
sg10
g170
sg11
g12
(g13
g14
NtRp174
(dp175
g17
I1
sg18
I0
sg19
I6
sg20
I2
sg21
I0
sg22
I0
sg23
I0
sbssg24
S'(\xd8_#e\x13xM\xf2s_\xa6"\x98f!'
p176
ssS'raspy_common_server'
p177
(dp178
g6
(dp179
g8
S'raspy_common_server.html'
p180
sg10
S'raspy.common.server'
p181
sg11
g12
(g13
g14
NtRp182
(dp183
g17
I1
sg18
I0
sg19
I47
sg20
I3
sg21
I0
sg22
I3
sg23
I0
sbssg24
S'I\xb5\xb0\xccWc\xb8e\x90<\xb9:8x\xb0/'
p184
ssS'raspy_common_devices'
p185
(dp186
g6
(dp187
g8
S'raspy_common_devices.html'
p188
sg10
S'raspy.common.devices'
p189
sg11
g12
(g13
g14
NtRp190
(dp191
g17
I1
sg18
I0
sg19
I10
sg20
I0
sg21
I0
sg22
I0
sg23
I0
sbssg24
S'\xf4\xfc0\xe2\x95\xf2wrr\x1c\xdep0\xc4\x86\\'
p192
ssS'raspy_common_kvsimple'
p193
(dp194
g6
(dp195
g8
S'raspy_common_kvsimple.html'
p196
sg10
S'raspy.common.kvsimple'
p197
sg11
g12
(g13
g14
NtRp198
(dp199
g17
I1
sg18
I0
sg19
I34
sg20
I0
sg21
I0
sg22
I2
sg23
I0
sbssg24
S'H\x07\xe8>%t\x95\x17\x11\xe5y\xa8\x1f\xd7\x8c\xf2'
p200
ssS'raspy_common_mdwrkapi'
p201
(dp202
g6
(dp203
g8
S'raspy_common_mdwrkapi.html'
p204
sg10
S'raspy.common.mdwrkapi'
p205
sg11
g12
(g13
g14
NtRp206
(dp207
g17
I1
sg18
I0
sg19
I96
sg20
I2
sg21
I0
sg22
I15
sg23
I0
sbssg24
S'\xfd\x9b\x9e\xcfwS\xa9\x91x\xb4a\xda\xed\xb8\x85u'
p208
sssS'version'
p209
S'3.7.1'
p210
sS'settings'
p211
S'I` MG\xe4Z\xa4\xd7k\xfa\xc9\x84\xfaj\x07'
p212
sS'format'
p213
I1
s.