(dp1
S'files'
p2
(dp3
S'raspyweb'
p4
(dp5
S'index'
p6
(dp7
S'html_filename'
p8
S'raspyweb.html'
p9
sS'name'
p10
g4
sS'nums'
p11
ccopy_reg
_reconstructor
p12
(ccoverage.results
Numbers
p13
c__builtin__
object
p14
NtRp15
(dp16
S'n_files'
p17
I1
sS'n_branches'
p18
I0
sS'n_statements'
p19
I6
sS'n_excluded'
p20
I2
sS'n_partial_branches'
p21
I0
sS'n_missing'
p22
I0
sS'n_missing_branches'
p23
I0
sbssS'hash'
p24
S'(\xd8_#e\x13xM\xf2s_\xa6"\x98f!'
p25
ssS'raspy_servers_broker'
p26
(dp27
g6
(dp28
g8
S'raspy_servers_broker.html'
p29
sg10
S'raspy.servers.broker'
p30
sg11
g12
(g13
g14
NtRp31
(dp32
g17
I1
sg18
I0
sg19
I278
sg20
I7
sg21
I0
sg22
I11
sg23
I0
sbssg24
S'Zu\x01\xaf\xf7\x8f\x13\x84]B\xda0\x8cr\xff\xb2'
p33
ssS'raspy_servers'
p34
(dp35
g6
(dp36
g8
S'raspy_servers.html'
p37
sg10
S'raspy.servers'
p38
sg11
g12
(g13
g14
NtRp39
(dp40
g17
I1
sg18
I0
sg19
I6
sg20
I2
sg21
I0
sg22
I0
sg23
I0
sbssg24
S'(\xd8_#e\x13xM\xf2s_\xa6"\x98f!'
p41
ssS'raspy_common_zhelpers'
p42
(dp43
g6
(dp44
g8
S'raspy_common_zhelpers.html'
p45
sg10
S'raspy.common.zhelpers'
p46
sg11
g12
(g13
g14
NtRp47
(dp48
g17
I1
sg18
I0
sg19
I30
sg20
I0
sg21
I0
sg22
I13
sg23
I0
sbssg24
S'\xd1qBo)!\x91\xe6\xd8\xa5z\xa7\x8c\x89kb'
p49
ssS'raspy_common_mdcliapi'
p50
(dp51
g6
(dp52
g8
S'raspy_common_mdcliapi.html'
p53
sg10
S'raspy.common.mdcliapi'
p54
sg11
g12
(g13
g14
NtRp55
(dp56
g17
I1
sg18
I0
sg19
I138
sg20
I2
sg21
I0
sg22
I19
sg23
I0
sbssg24
S'\x12n6\xf6&\x10\x87\xa1Dx5<O\x81fE'
p57
ssS'raspyweb_config'
p58
(dp59
g6
(dp60
g8
S'raspyweb_config.html'
p61
sg10
S'raspyweb.config'
p62
sg11
g12
(g13
g14
NtRp63
(dp64
g17
I1
sg18
I0
sg19
I28
sg20
I0
sg21
I0
sg22
I0
sg23
I0
sbssg24
S'\xf9\xe7\x00\xcd\x15\x9e\x16\n\xc19\x1a\x10\x83\\\xc93'
p65
ssS'raspy_servers_fake'
p66
(dp67
g6
(dp68
g8
S'raspy_servers_fake.html'
p69
sg10
S'raspy.servers.fake'
p70
sg11
g12
(g13
g14
NtRp71
(dp72
g17
I1
sg18
I0
sg19
I44
sg20
I3
sg21
I0
sg22
I6
sg23
I0
sbssg24
S'\x08<\xb0\xe8}\xc0\xb4\xb9\x1c\x83\x03"\xcc\x8fJ\xb0'
p73
ssS'raspy_common_devices_sensor'
p74
(dp75
g6
(dp76
g8
S'raspy_common_devices_sensor.html'
p77
sg10
S'raspy.common.devices.sensor'
p78
sg11
g12
(g13
g14
NtRp79
(dp80
g17
I1
sg18
I0
sg19
I34
sg20
I0
sg21
I0
sg22
I1
sg23
I0
sbssg24
S"\x1e\x06\x93\xa0\xb7\xd4\xab\xa8\x83\xf9'\xf9$`\xf8\x1c"
p81
ssS'raspy_common_MDP'
p82
(dp83
g6
(dp84
g8
S'raspy_common_MDP.html'
p85
sg10
S'raspy.common.MDP'
p86
sg11
g12
(g13
g14
NtRp87
(dp88
g17
I1
sg18
I0
sg19
I31
sg20
I0
sg21
I0
sg22
I3
sg23
I0
sbssg24
S'\x92o\x9b\xc0;\x96\x99.\xcf\xde[\xd0\x86\x85\xce\xc1'
p89
ssS'raspy_common_executive'
p90
(dp91
g6
(dp92
g8
S'raspy_common_executive.html'
p93
sg10
S'raspy.common.executive'
p94
sg11
g12
(g13
g14
NtRp95
(dp96
g17
I1
sg18
I0
sg19
I48
sg20
I0
sg21
I0
sg22
I7
sg23
I0
sbssg24
S'0L\x00?\xbf\xbf8\x1e\xe2:\xb0Jf4\xa2\xca'
p97
ssS'raspy_servers_onewire'
p98
(dp99
g6
(dp100
g8
S'raspy_servers_onewire.html'
p101
sg10
S'raspy.servers.onewire'
p102
sg11
g12
(g13
g14
NtRp103
(dp104
g17
I1
sg18
I0
sg19
I46
sg20
I3
sg21
I0
sg22
I5
sg23
I0
sbssg24
S'c\xb2\xee\xa9C\r+\xe4\x85\xc7\x0c\xda\xb8\x0b\xf2\x87'
p105
ssS'raspyweb_app_views'
p106
(dp107
g6
(dp108
g8
S'raspyweb_app_views.html'
p109
sg10
S'raspyweb.app.views'
p110
sg11
g12
(g13
g14
NtRp111
(dp112
g17
I1
sg18
I0
sg19
I49
sg20
I0
sg21
I0
sg22
I36
sg23
I0
sbssg24
S'\x14\xc4<\x86\x04`\xa1e`\x9bf\xa2F`\xce\xb9'
p113
ssS'raspy_common_devices_device'
p114
(dp115
g6
(dp116
g8
S'raspy_common_devices_device.html'
p117
sg10
S'raspy.common.devices.device'
p118
sg11
g12
(g13
g14
NtRp119
(dp120
g17
I1
sg18
I0
sg19
I143
sg20
I0
sg21
I0
sg22
I16
sg23
I0
sbssg24
S'<y\xd9(\xc3\x99\x95W\xf53P\xc9\xc5=\x9d-'
p121
ssS'raspyweb_app_ajax'
p122
(dp123
g6
(dp124
g8
S'raspyweb_app_ajax.html'
p125
sg10
S'raspyweb.app.ajax'
p126
sg11
g12
(g13
g14
NtRp127
(dp128
g17
I1
sg18
I0
sg19
I31
sg20
I0
sg21
I0
sg22
I15
sg23
I0
sbssg24
S'"\xa9\xf2\'\x93\xc9\xbf\xfd\xf9\r00\x1d\x93pH'
p129
ssS'raspyweb_app'
p130
(dp131
g6
(dp132
g8
S'raspyweb_app.html'
p133
sg10
S'raspyweb.app'
p134
sg11
g12
(g13
g14
NtRp135
(dp136
g17
I1
sg18
I0
sg19
I27
sg20
I0
sg21
I0
sg22
I7
sg23
I0
sbssg24
S'Y\xb1d\xed\x9bO\xba\x00\xc35<\x15\xac\xd7\x86|'
p137
ssS'raspy_common_kvcliapi'
p138
(dp139
g6
(dp140
g8
S'raspy_common_kvcliapi.html'
p141
sg10
S'raspy.common.kvcliapi'
p142
sg11
g12
(g13
g14
NtRp143
(dp144
g17
I1
sg18
I0
sg19
I79
sg20
I0
sg21
I0
sg22
I4
sg23
I0
sbssg24
S'\xbf\xef\xa2GQ\xe0\xe6\x89\xf7$5\x1e\x8dl\xbf}'
p145
ssS'raspy_common_devices_media'
p146
(dp147
g6
(dp148
g8
S'raspy_common_devices_media.html'
p149
sg10
S'raspy.common.devices.media'
p150
sg11
g12
(g13
g14
NtRp151
(dp152
g17
I1
sg18
I0
sg19
I34
sg20
I0
sg21
I0
sg22
I1
sg23
I0
sbssg24
S'\xbe\xd9lne\xa4\x8bJ\xa5\xc1P\xa6\x84\x8f\xf7\xa2'
p153
ssS'raspy_servers_titanic'
p154
(dp155
g6
(dp156
g8
S'raspy_servers_titanic.html'
p157
sg10
S'raspy.servers.titanic'
p158
sg11
g12
(g13
g14
NtRp159
(dp160
g17
I1
sg18
I0
sg19
I246
sg20
I6
sg21
I0
sg22
I5
sg23
I0
sbssg24
S'\xd1\x9b\xc1\xff\xce\x19\xdc:iU\x1df.\xc0\xe3\xc0'
p161
ssS'raspy_common_statistics'
p162
(dp163
g6
(dp164
g8
S'raspy_common_statistics.html'
p165
sg10
S'raspy.common.statistics'
p166
sg11
g12
(g13
g14
NtRp167
(dp168
g17
I1
sg18
I0
sg19
I70
sg20
I0
sg21
I0
sg22
I20
sg23
I0
sbssg24
S'F\x8a\x8ar\xa59\xf2\xad\x89\x80\x9b\x0c\xd6\\K\xe4'
p169
ssS'raspyweb_app_ajax_views'
p170
(dp171
g6
(dp172
g8
S'raspyweb_app_ajax_views.html'
p173
sg10
S'raspyweb.app.ajax.views'
p174
sg11
g12
(g13
g14
NtRp175
(dp176
g17
I1
sg18
I0
sg19
I18
sg20
I0
sg21
I0
sg22
I5
sg23
I0
sbssg24
S'[\xb4\x92B\xa1/\xc9\x16\x02X\xf4p\x9e\xd2m\xb9'
p177
ssS'raspy_common'
p178
(dp179
g6
(dp180
g8
S'raspy_common.html'
p181
sg10
S'raspy.common'
p182
sg11
g12
(g13
g14
NtRp183
(dp184
g17
I1
sg18
I0
sg19
I6
sg20
I2
sg21
I0
sg22
I0
sg23
I0
sbssg24
S'(\xd8_#e\x13xM\xf2s_\xa6"\x98f!'
p185
ssS'raspy_servers_core'
p186
(dp187
g6
(dp188
g8
S'raspy_servers_core.html'
p189
sg10
S'raspy.servers.core'
p190
sg11
g12
(g13
g14
NtRp191
(dp192
g17
I1
sg18
I0
sg19
I131
sg20
I3
sg21
I0
sg22
I33
sg23
I0
sbssg24
S',ZZO\x94f\xe4\xe9\xee\xbc\xa8\x0f\xa3\x9b\xf3l'
p193
ssS'raspy'
p194
(dp195
g6
(dp196
g8
S'raspy.html'
p197
sg10
g194
sg11
g12
(g13
g14
NtRp198
(dp199
g17
I1
sg18
I0
sg19
I6
sg20
I2
sg21
I0
sg22
I0
sg23
I0
sbssg24
S'(\xd8_#e\x13xM\xf2s_\xa6"\x98f!'
p200
ssS'raspy_common_server'
p201
(dp202
g6
(dp203
g8
S'raspy_common_server.html'
p204
sg10
S'raspy.common.server'
p205
sg11
g12
(g13
g14
NtRp206
(dp207
g17
I1
sg18
I0
sg19
I47
sg20
I3
sg21
I0
sg22
I3
sg23
I0
sbssg24
S'I\xb5\xb0\xccWc\xb8e\x90<\xb9:8x\xb0/'
p208
ssS'raspy_common_devices'
p209
(dp210
g6
(dp211
g8
S'raspy_common_devices.html'
p212
sg10
S'raspy.common.devices'
p213
sg11
g12
(g13
g14
NtRp214
(dp215
g17
I1
sg18
I0
sg19
I10
sg20
I0
sg21
I0
sg22
I0
sg23
I0
sbssg24
S'\xf4\xfc0\xe2\x95\xf2wrr\x1c\xdep0\xc4\x86\\'
p216
ssS'raspy_common_kvsimple'
p217
(dp218
g6
(dp219
g8
S'raspy_common_kvsimple.html'
p220
sg10
S'raspy.common.kvsimple'
p221
sg11
g12
(g13
g14
NtRp222
(dp223
g17
I1
sg18
I0
sg19
I34
sg20
I0
sg21
I0
sg22
I2
sg23
I0
sbssg24
S'H\x07\xe8>%t\x95\x17\x11\xe5y\xa8\x1f\xd7\x8c\xf2'
p224
ssS'raspy_common_mdwrkapi'
p225
(dp226
g6
(dp227
g8
S'raspy_common_mdwrkapi.html'
p228
sg10
S'raspy.common.mdwrkapi'
p229
sg11
g12
(g13
g14
NtRp230
(dp231
g17
I1
sg18
I0
sg19
I96
sg20
I2
sg21
I0
sg22
I9
sg23
I0
sbssg24
S'\nE\x0f\x11\xd2\xf7\x0c%\x9c_{\xf3\xf7\x10\xc7\x9d'
p232
sssS'version'
p233
S'3.7.1'
p234
sS'settings'
p235
S'I` MG\xe4Z\xa4\xd7k\xfa\xc9\x84\xfaj\x07'
p236
sS'format'
p237
I1
s.